target datalayout = "e-m:e-p270:32:32-p271:32:32-p272:64:64-i64:64-i128:128-f80:128-n8:16:32:64-S128"
target triple = "x86_64-pc-linux-gnu"

%"class.cv::utils::trace::details::Region" = type <{ ptr, i32, [4 x i8] }>

; Function Attrs: mustprogress nounwind uwtable
define internal noundef signext i16 @_ZN2cvL13saturate_castIsEET_i(i32 noundef %0) #2 {
  %2 = alloca i32, align 4
  store i32 %0, ptr %2, align 4
  %3 = load i32, ptr %2, align 4
  %4 = sub nsw i32 %3, -32768
  %5 = icmp ule i32 %4, 65535
  br i1 %5, label %6, label %8

6:                                                ; preds = %1
  %7 = load i32, ptr %2, align 4
  br label %12

8:                                                ; preds = %1
  %9 = load i32, ptr %2, align 4
  %10 = icmp sgt i32 %9, 0
  %11 = select i1 %10, i32 32767, i32 -32768
  br label %12

12:                                               ; preds = %8, %6
  %13 = phi i32 [ %7, %6 ], [ %11, %8 ]
  %14 = trunc i32 %13 to i16
  ret i16 %14
}

; Function Attrs: mustprogress nounwind uwtable
define linkonce_odr hidden void @_ZN2cv12hal_baseline9v_cleanupEv() #2 comdat {
  ret void
}

; Function Attrs: mustprogress nounwind uwtable
define internal noundef signext i16 @_ZN2cv3hal12cpu_baselineL9c_absdiffIsEET_S3_S3_(i16 noundef signext %0, i16 noundef signext %1) #2 {
  %3 = alloca i16, align 2
  %4 = alloca i16, align 2
  store i16 %0, ptr %3, align 2
  store i16 %1, ptr %4, align 2
  %5 = load i16, ptr %3, align 2
  %6 = sext i16 %5 to i32
  %7 = load i16, ptr %4, align 2
  %8 = sext i16 %7 to i32
  %9 = sub nsw i32 %6, %8
  %10 = call i32 @llvm.abs.i32(i32 %9, i1 true)
  %11 = call noundef signext i16 @_ZN2cvL13saturate_castIsEET_i(i32 noundef %10)
  ret i16 %11
}

; Function Attrs: mustprogress uwtable
define linkonce_odr hidden void @_ZN2cv12hal_baseline11simd128_cpp10vx_cleanupEv() #0 comdat {
  call void @_ZN2cv12hal_baseline9v_cleanupEv()
  ret void
}

; Function Attrs: mustprogress uwtable
define linkonce_odr hidden noundef signext i16 @_ZN2cv3hal12cpu_baseline10op_absdiffIsNS_12hal_baseline5v_regIsLi8EEEE1rEss(i16 noundef signext %0, i16 noundef signext %1) #0 comdat align 2 {
  %3 = alloca i16, align 2
  %4 = alloca i16, align 2
  store i16 %0, ptr %3, align 2
  store i16 %1, ptr %4, align 2
  %5 = load i16, ptr %3, align 2
  %6 = load i16, ptr %4, align 2
  %7 = call noundef signext i16 @_ZN2cv3hal12cpu_baselineL9c_absdiffIsEET_S3_S3_(i16 noundef signext %5, i16 noundef signext %6)
  ret i16 %7
}

; Function Attrs: mustprogress nounwind uwtable
define linkonce_odr hidden void @_ZN2cv5utils5trace7details6RegionD2Ev(ptr noundef nonnull align 8 dereferenceable(12) %0) unnamed_addr #2 comdat align 2 personality ptr @__gxx_personality_v0 {
  %2 = alloca ptr, align 8
  store ptr %0, ptr %2, align 8
  %3 = load ptr, ptr %2, align 8
  %4 = getelementptr inbounds %"class.cv::utils::trace::details::Region", ptr %3, i32 0, i32 1
  %5 = load i32, ptr %4, align 8
  %6 = icmp ne i32 %5, 0
  br i1 %6, label %7, label %9

7:                                                ; preds = %1
  invoke void @_ZN2cv5utils5trace7details6Region7destroyEv(ptr noundef nonnull align 8 dereferenceable(12) %3)
          to label %8 unwind label %10

8:                                                ; preds = %7
  br label %9

9:                                                ; preds = %8, %1
  ret void

10:                                               ; preds = %7
  %11 = landingpad { ptr, i32 }
          catch ptr null
  %12 = extractvalue { ptr, i32 } %11, 0
  call void @__clang_call_terminate(ptr %12) #10
  unreachable
}

; Function Attrs: mustprogress uwtable
define internal void @_ZN2cv3hal12cpu_baselineL8bin_loopINS1_10op_absdiffEsNS_12hal_baseline5v_regIsLi8EEEEEvPKT0_mS9_mPS7_mii(ptr noundef %0, i64 noundef %1, ptr noundef %2, i64 noundef %3, ptr noundef %4, i64 noundef %5, i32 noundef %6, i32 noundef %7) #0 {
  %9 = alloca ptr, align 8
  %10 = alloca i64, align 8
  %11 = alloca ptr, align 8
  %12 = alloca i64, align 8
  %13 = alloca ptr, align 8
  %14 = alloca i64, align 8
  %15 = alloca i32, align 4
  %16 = alloca i32, align 4
  %17 = alloca i32, align 4
  store ptr %0, ptr %9, align 8
  store i64 %1, ptr %10, align 8
  store ptr %2, ptr %11, align 8
  store i64 %3, ptr %12, align 8
  store ptr %4, ptr %13, align 8
  store i64 %5, ptr %14, align 8
  store i32 %6, ptr %15, align 4
  store i32 %7, ptr %16, align 4
  %18 = load i64, ptr %10, align 8
  %19 = udiv i64 %18, 2
  store i64 %19, ptr %10, align 8
  %20 = load i64, ptr %12, align 8
  %21 = udiv i64 %20, 2
  store i64 %21, ptr %12, align 8
  %22 = load i64, ptr %14, align 8
  %23 = udiv i64 %22, 2
  store i64 %23, ptr %14, align 8
  br label %24

24:                                               ; preds = %53, %8
  %25 = load i32, ptr %16, align 4
  %26 = add nsw i32 %25, -1
  store i32 %26, ptr %16, align 4
  %27 = icmp ne i32 %25, 0
  br i1 %27, label %28, label %63

28:                                               ; preds = %24
  store i32 0, ptr %17, align 4
  br label %29

29:                                               ; preds = %49, %28
  %30 = load i32, ptr %17, align 4
  %31 = load i32, ptr %15, align 4
  %32 = icmp slt i32 %30, %31
  br i1 %32, label %33, label %52

33:                                               ; preds = %29
  %34 = load ptr, ptr %9, align 8
  %35 = load i32, ptr %17, align 4
  %36 = sext i32 %35 to i64
  %37 = getelementptr inbounds i16, ptr %34, i64 %36
  %38 = load i16, ptr %37, align 2
  %39 = load ptr, ptr %11, align 8
  %40 = load i32, ptr %17, align 4
  %41 = sext i32 %40 to i64
  %42 = getelementptr inbounds i16, ptr %39, i64 %41
  %43 = load i16, ptr %42, align 2
  %44 = call noundef signext i16 @_ZN2cv3hal12cpu_baseline10op_absdiffIsNS_12hal_baseline5v_regIsLi8EEEE1rEss(i16 noundef signext %38, i16 noundef signext %43)
  %45 = load ptr, ptr %13, align 8
  %46 = load i32, ptr %17, align 4
  %47 = sext i32 %46 to i64
  %48 = getelementptr inbounds i16, ptr %45, i64 %47
  store i16 %44, ptr %48, align 2
  br label %49

49:                                               ; preds = %33
  %50 = load i32, ptr %17, align 4
  %51 = add nsw i32 %50, 1
  store i32 %51, ptr %17, align 4
  br label %29, !llvm.loop !71

52:                                               ; preds = %29
  br label %53

53:                                               ; preds = %52
  %54 = load i64, ptr %10, align 8
  %55 = load ptr, ptr %9, align 8
  %56 = getelementptr inbounds i16, ptr %55, i64 %54
  store ptr %56, ptr %9, align 8
  %57 = load i64, ptr %12, align 8
  %58 = load ptr, ptr %11, align 8
  %59 = getelementptr inbounds i16, ptr %58, i64 %57
  store ptr %59, ptr %11, align 8
  %60 = load i64, ptr %14, align 8
  %61 = load ptr, ptr %13, align 8
  %62 = getelementptr inbounds i16, ptr %61, i64 %60
  store ptr %62, ptr %13, align 8
  br label %24, !llvm.loop !72

63:                                               ; preds = %24
  call void @_ZN2cv12hal_baseline11simd128_cpp10vx_cleanupEv()
  ret void
}

; Function Attrs: mustprogress uwtable
define hidden void @_ZN2cv3hal12cpu_baseline10absdiff16sEPKsmS3_mPsmii(ptr noundef %0, i64 noundef %1, ptr noundef %2, i64 noundef %3, ptr noundef %4, i64 noundef %5, i32 noundef %6, i32 noundef %7) #0 personality ptr @__gxx_personality_v0 {
  %9 = alloca ptr, align 8
  %10 = alloca i64, align 8
  %11 = alloca ptr, align 8
  %12 = alloca i64, align 8
  %13 = alloca ptr, align 8
  %14 = alloca i64, align 8
  %15 = alloca i32, align 4
  %16 = alloca i32, align 4
  %17 = alloca %"class.cv::utils::trace::details::Region", align 8
  %18 = alloca ptr, align 8
  %19 = alloca i32, align 4
  store ptr %0, ptr %9, align 8
  store i64 %1, ptr %10, align 8
  store ptr %2, ptr %11, align 8
  store i64 %3, ptr %12, align 8
  store ptr %4, ptr %13, align 8
  store i64 %5, ptr %14, align 8
  store i32 %6, ptr %15, align 4
  store i32 %7, ptr %16, align 4
  call void @_ZN2cv5utils5trace7details6RegionC1ERKNS3_21LocationStaticStorageE(ptr noundef nonnull align 8 dereferenceable(12) %17, ptr noundef nonnull align 8 dereferenceable(32) @_ZZN2cv3hal12cpu_baseline10absdiff16sEPKsmS3_mPsmiiE25__cv_trace_location_fn547)
  %20 = load ptr, ptr %9, align 8
  %21 = load i64, ptr %10, align 8
  %22 = load ptr, ptr %11, align 8
  %23 = load i64, ptr %12, align 8
  %24 = load ptr, ptr %13, align 8
  %25 = load i64, ptr %14, align 8
  %26 = load i32, ptr %15, align 4
  %27 = load i32, ptr %16, align 4
  invoke void @_ZN2cv3hal12cpu_baselineL8bin_loopINS1_10op_absdiffEsNS_12hal_baseline5v_regIsLi8EEEEEvPKT0_mS9_mPS7_mii(ptr noundef %20, i64 noundef %21, ptr noundef %22, i64 noundef %23, ptr noundef %24, i64 noundef %25, i32 noundef %26, i32 noundef %27)
          to label %28 unwind label %29

28:                                               ; preds = %8
  call void @_ZN2cv5utils5trace7details6RegionD2Ev(ptr noundef nonnull align 8 dereferenceable(12) %17) #9
  ret void

29:                                               ; preds = %8
  %30 = landingpad { ptr, i32 }
          cleanup
  %31 = extractvalue { ptr, i32 } %30, 0
  store ptr %31, ptr %18, align 8
  %32 = extractvalue { ptr, i32 } %30, 1
  store i32 %32, ptr %19, align 4
  call void @_ZN2cv5utils5trace7details6RegionD2Ev(ptr noundef nonnull align 8 dereferenceable(12) %17) #9
  br label %33

33:                                               ; preds = %29
  %34 = load ptr, ptr %18, align 8
  %35 = load i32, ptr %19, align 4
  %36 = insertvalue { ptr, i32 } poison, ptr %34, 0
  %37 = insertvalue { ptr, i32 } %36, i32 %35, 1
  resume { ptr, i32 } %37
}